Certificate:
    Data:
        Version: 1 (0x0)
        Serial Number: 1 (0x1)
        Signature Algorithm: sha256WithRSAEncryption
        Issuer: C=US, ST=Indiana, L=West Lafayette, O=Purdue, OU=ECE, CN=localhost/emailAddress=lewis446@purdue.edu
        Validity
            Not Before: Mar 30 06:10:38 2022 GMT
            Not After : Jun 28 06:10:38 2022 GMT
        Subject: C=US, ST=Indiana, L=West Lafayette, O=Purdue, OU=ECE, CN=localhost/emailAddress=lewis446@purdue.edu
        Subject Public Key Info:
            Public Key Algorithm: rsaEncryption
                RSA Public-Key: (2048 bit)
                Modulus:
                    00:ab:ab:63:23:25:34:74:72:db:aa:ee:cd:a4:a8:
                    6a:a4:48:60:e8:85:0f:fe:ce:76:70:37:b4:6a:cb:
                    ee:02:49:4f:86:4f:7a:b0:06:4f:fa:ad:38:44:a6:
                    19:84:6b:cd:1b:b1:3b:43:8a:cc:24:f5:7e:f9:78:
                    2b:34:fc:49:8b:1d:83:bc:ca:92:fd:cd:41:b6:90:
                    ab:cd:e3:cf:e2:13:5b:9b:9c:23:b5:ad:e2:b5:ba:
                    74:5e:f7:34:65:61:7d:28:1d:66:b0:a1:1a:3b:21:
                    b1:0e:be:dd:68:fa:09:d5:a2:d0:65:fb:c6:07:69:
                    82:12:8b:95:d8:43:5b:c8:bf:c6:c4:37:f3:11:35:
                    05:29:d1:7b:a0:68:f5:dc:91:4f:f4:6f:6d:95:2c:
                    db:88:27:39:60:5c:66:73:79:96:25:11:95:72:0c:
                    33:b3:d7:fb:0d:26:ec:22:f8:ad:91:f1:d7:be:f3:
                    1e:da:62:3c:88:db:20:9a:5f:d9:cf:36:92:78:55:
                    40:11:1e:40:2a:c1:91:50:fd:f8:6e:8f:e4:8b:fd:
                    0f:12:19:57:8c:8d:09:a4:3d:2d:20:1f:7d:bf:7f:
                    00:06:eb:d9:d8:7b:3b:24:dd:4d:1c:81:b6:2c:2a:
                    6c:12:52:63:45:3a:04:de:f9:ba:4a:f0:ad:72:b8:
                    a8:0d
                Exponent: 65537 (0x10001)
    Signature Algorithm: sha256WithRSAEncryption
         79:d2:ea:b7:60:30:7a:ed:24:4e:33:8d:5d:80:6d:22:e9:d6:
         e7:52:50:86:de:1f:49:99:eb:a2:fd:e6:f0:bb:72:4c:54:e6:
         3e:98:56:1c:6b:89:3c:c9:05:f6:0d:2c:f1:b7:0f:78:fa:f5:
         5e:e1:99:59:39:70:a3:50:b4:31:cf:cd:2d:57:40:e6:a9:e1:
         c8:dc:81:26:c5:cc:de:64:d0:54:ce:70:c2:1c:d1:c3:48:6d:
         c1:cf:63:74:ad:5c:d8:ea:f1:b2:6d:fb:48:12:c3:33:6b:19:
         38:63:94:92:8d:9d:fd:98:11:f8:8e:ec:61:22:38:6f:31:94:
         7d:26:bc:20:1a:26:97:01:8a:c2:0d:e7:f2:00:48:e6:1e:3f:
         39:3a:50:51:af:cd:c2:5b:4f:38:4d:ef:0b:95:04:a1:c2:a6:
         f1:88:3a:25:4a:5d:31:26:b4:c0:3a:b2:9b:fb:b3:e9:42:aa:
         bf:2d:90:66:85:ef:74:8b:0e:4f:c5:1e:fc:86:b8:90:d4:42:
         3c:73:a8:ff:97:07:67:71:2a:d3:ed:bf:bb:4f:48:c1:6e:ae:
         df:13:9c:c6:93:c5:e4:31:2b:18:a1:c5:af:78:a7:03:08:6b:
         a0:95:7e:14:4f:2c:35:de:db:68:8e:62:67:80:37:14:4d:30:
         cd:88:d0:1b
-----BEGIN CERTIFICATE-----
MIIDlDCCAnwCAQEwDQYJKoZIhvcNAQELBQAwgY8xCzAJBgNVBAYTAlVTMRAwDgYD
VQQIDAdJbmRpYW5hMRcwFQYDVQQHDA5XZXN0IExhZmF5ZXR0ZTEPMA0GA1UECgwG
UHVyZHVlMQwwCgYDVQQLDANFQ0UxEjAQBgNVBAMMCWxvY2FsaG9zdDEiMCAGCSqG
SIb3DQEJARYTbGV3aXM0NDZAcHVyZHVlLmVkdTAeFw0yMjAzMzAwNjEwMzhaFw0y
MjA2MjgwNjEwMzhaMIGPMQswCQYDVQQGEwJVUzEQMA4GA1UECAwHSW5kaWFuYTEX
MBUGA1UEBwwOV2VzdCBMYWZheWV0dGUxDzANBgNVBAoMBlB1cmR1ZTEMMAoGA1UE
CwwDRUNFMRIwEAYDVQQDDAlsb2NhbGhvc3QxIjAgBgkqhkiG9w0BCQEWE2xld2lz
NDQ2QHB1cmR1ZS5lZHUwggEiMA0GCSqGSIb3DQEBAQUAA4IBDwAwggEKAoIBAQCr
q2MjJTR0ctuq7s2kqGqkSGDohQ/+znZwN7Rqy+4CSU+GT3qwBk/6rThEphmEa80b
sTtDiswk9X75eCs0/EmLHYO8ypL9zUG2kKvN48/iE1ubnCO1reK1unRe9zRlYX0o
HWawoRo7IbEOvt1o+gnVotBl+8YHaYISi5XYQ1vIv8bEN/MRNQUp0XugaPXckU/0
b22VLNuIJzlgXGZzeZYlEZVyDDOz1/sNJuwi+K2R8de+8x7aYjyI2yCaX9nPNpJ4
VUARHkAqwZFQ/fhuj+SL/Q8SGVeMjQmkPS0gH32/fwAG69nYezsk3U0cgbYsKmwS
UmNFOgTe+bpK8K1yuKgNAgMBAAEwDQYJKoZIhvcNAQELBQADggEBAHnS6rdgMHrt
JE4zjV2AbSLp1udSUIbeH0mZ66L95vC7ckxU5j6YVhxriTzJBfYNLPG3D3j69V7h
mVk5cKNQtDHPzS1XQOap4cjcgSbFzN5k0FTOcMIc0cNIbcHPY3StXNjq8bJt+0gS
wzNrGThjlJKNnf2YEfiO7GEiOG8xlH0mvCAaJpcBisIN5/IASOYePzk6UFGvzcJb
TzhN7wuVBKHCpvGIOiVKXTEmtMA6spv7s+lCqr8tkGaF73SLDk/FHvyGuJDUQjxz
qP+XB2dxKtPtv7tPSMFurt8TnMaTxeQxKxihxa94pwMIa6CVfhRPLDXe22iOYmeA
NxRNMM2I0Bs=
-----END CERTIFICATE-----
